target datalayout = "e-m:e-p270:32:32-p271:32:32-p272:64:64-i64:64-i128:128-f80:128-n8:16:32:64-S128"
target triple = "x86_64-pc-linux-gnu"

%struct.EVP_ARIA_KEY = type { %struct.aria_key_st }
%struct.aria_key_st = type { [17 x %union.ARIA_u128], i32 }
%union.ARIA_u128 = type { [4 x i32] }
%struct.evp_cipher_ctx_st = type { ptr, ptr, i32, i32, [16 x i8], [16 x i8], [32 x i8], i32, ptr, i32, i32, i64, ptr, i32, i32, [32 x i8], i64, ptr, ptr }

; Function Attrs: nounwind uwtable
define internal i32 @aria_ctr_cipher(ptr noundef %0, ptr noundef %1, ptr noundef %2, i64 noundef %3) #0 {
  %5 = alloca i32, align 4
  %6 = alloca ptr, align 8
  %7 = alloca ptr, align 8
  %8 = alloca ptr, align 8
  %9 = alloca i64, align 8
  %10 = alloca i32, align 4
  %11 = alloca i32, align 4
  %12 = alloca ptr, align 8
  %13 = alloca i32, align 4
  store ptr %0, ptr %6, align 8, !tbaa !3
  store ptr %1, ptr %7, align 8, !tbaa !8
  store ptr %2, ptr %8, align 8, !tbaa !8
  store i64 %3, ptr %9, align 8, !tbaa !12
  call void @llvm.lifetime.start.p0(i64 4, ptr %10) #4
  %14 = load ptr, ptr %6, align 8, !tbaa !3
  %15 = call i32 @EVP_CIPHER_CTX_get_num(ptr noundef %14)
  store i32 %15, ptr %10, align 4, !tbaa !10
  call void @llvm.lifetime.start.p0(i64 4, ptr %11) #4
  call void @llvm.lifetime.start.p0(i64 8, ptr %12) #4
  %16 = load ptr, ptr %6, align 8, !tbaa !3
  %17 = call ptr @EVP_CIPHER_CTX_get_cipher_data(ptr noundef %16)
  store ptr %17, ptr %12, align 8, !tbaa !41
  %18 = load i32, ptr %10, align 4, !tbaa !10
  %19 = icmp slt i32 %18, 0
  br i1 %19, label %20, label %21

20:                                               ; preds = %4
  store i32 0, ptr %5, align 4
  store i32 1, ptr %13, align 4
  br label %36

21:                                               ; preds = %4
  %22 = load i32, ptr %10, align 4, !tbaa !10
  store i32 %22, ptr %11, align 4, !tbaa !10
  %23 = load ptr, ptr %8, align 8, !tbaa !8
  %24 = load ptr, ptr %7, align 8, !tbaa !8
  %25 = load i64, ptr %9, align 8, !tbaa !12
  %26 = load ptr, ptr %12, align 8, !tbaa !41
  %27 = getelementptr inbounds nuw %struct.EVP_ARIA_KEY, ptr %26, i32 0, i32 0
  %28 = load ptr, ptr %6, align 8, !tbaa !3
  %29 = getelementptr inbounds nuw %struct.evp_cipher_ctx_st, ptr %28, i32 0, i32 5
  %30 = getelementptr inbounds [16 x i8], ptr %29, i64 0, i64 0
  %31 = load ptr, ptr %6, align 8, !tbaa !3
  %32 = call ptr @EVP_CIPHER_CTX_buf_noconst(ptr noundef %31)
  call void @CRYPTO_ctr128_encrypt(ptr noundef %23, ptr noundef %24, i64 noundef %25, ptr noundef %27, ptr noundef %30, ptr noundef %32, ptr noundef %11, ptr noundef @ossl_aria_encrypt)
  %33 = load ptr, ptr %6, align 8, !tbaa !3
  %34 = load i32, ptr %11, align 4, !tbaa !10
  %35 = call i32 @EVP_CIPHER_CTX_set_num(ptr noundef %33, i32 noundef %34)
  store i32 1, ptr %5, align 4
  store i32 1, ptr %13, align 4
  br label %36

36:                                               ; preds = %21, %20
  call void @llvm.lifetime.end.p0(i64 8, ptr %12) #4
  call void @llvm.lifetime.end.p0(i64 4, ptr %11) #4
  call void @llvm.lifetime.end.p0(i64 4, ptr %10) #4
  %37 = load i32, ptr %5, align 4
  ret i32 %37
}