; Function Attrs: nounwind uwtable
define internal range(i32 0, 2) i32 @aria_ctr_cipher(ptr noundef %0, ptr noundef %1, ptr noundef %2, i64 noundef %3) #1 {
  %5 = alloca i32, align 4
  %6 = tail call i32 @EVP_CIPHER_CTX_get_num(ptr noundef %0) #6
  call void @llvm.lifetime.start.p0(i64 4, ptr nonnull %5) #6
  %7 = tail call ptr @EVP_CIPHER_CTX_get_cipher_data(ptr noundef %0) #6
  %8 = icmp slt i32 %6, 0
  br i1 %8, label %14, label %9

9:                                                ; preds = %4
  store i32 %6, ptr %5, align 4, !tbaa !5
  %10 = getelementptr inbounds nuw i8, ptr %0, i64 40
  %11 = tail call ptr @EVP_CIPHER_CTX_buf_noconst(ptr noundef %0) #6
  call void @CRYPTO_ctr128_encrypt(ptr noundef %2, ptr noundef %1, i64 noundef %3, ptr noundef %7, ptr noundef nonnull %10, ptr noundef %11, ptr noundef nonnull %5, ptr noundef nonnull @ossl_aria_encrypt) #6
  %12 = load i32, ptr %5, align 4, !tbaa !5
  %13 = call i32 @EVP_CIPHER_CTX_set_num(ptr noundef %0, i32 noundef %12) #6
  br label %14

14:                                               ; preds = %4, %9
  %.0 = phi i32 [ 1, %9 ], [ 0, %4 ]
  call void @llvm.lifetime.end.p0(i64 4, ptr nonnull %5) #6
  ret i32 %.0
}